; Function Attrs: mustprogress uwtable
define void @_ZN9grpc_core10HPackTable8EvictOneEv(ptr noundef nonnull align 8 captures(none) dereferenceable(72) %0) local_unnamed_addr #8 align 2 personality ptr @__gxx_personality_v0 {
  %2 = alloca %"struct.grpc_core::HPackTable::Memento", align 8
  %3 = alloca %"class.absl::lts_20240722::log_internal::LogMessageFatal", align 8
  call void @llvm.lifetime.start.p0(i64 56, ptr nonnull %2) #31
  %4 = getelementptr inbounds nuw i8, ptr %0, i64 16
  call void @_ZN9grpc_core10HPackTable17MementoRingBuffer6PopOneEv(ptr dead_on_unwind nonnull writable sret(%"struct.grpc_core::HPackTable::Memento") align 8 %2, ptr noundef nonnull align 8 dereferenceable(48) %4)
  %5 = getelementptr inbounds nuw i8, ptr %2, i64 40
  %6 = load i32, ptr %5, align 8, !tbaa !31
  %7 = load i32, ptr %0, align 8, !tbaa !59
  %.not = icmp ugt i32 %6, %7
  br i1 %.not, label %8, label %.critedge, !prof !41

8:                                                ; preds = %1
  call void @llvm.lifetime.start.p0(i64 16, ptr nonnull %3) #31
  invoke void @_ZN4absl12lts_2024072212log_internal15LogMessageFatalC1EPKciSt17basic_string_viewIcSt11char_traitsIcEE(ptr noundef nonnull align 8 dereferenceable(16) %3, ptr noundef nonnull @.str.1, i32 noundef 123, i64 44, ptr nonnull @.str.3) #32
          to label %9 unwind label %10

9:                                                ; preds = %8
  call void @_ZN4absl12lts_2024072212log_internal15LogMessageFatalD1Ev(ptr noundef nonnull align 8 dereferenceable(16) %3) #33
  unreachable

10:                                               ; preds = %8
  %11 = landingpad { ptr, i32 }
          cleanup
  call void @llvm.lifetime.end.p0(i64 16, ptr nonnull %3) #31
  call void @_ZN9grpc_core10HPackTable7MementoD2Ev(ptr noundef nonnull align 8 dereferenceable(56) %2) #31
  call void @llvm.lifetime.end.p0(i64 56, ptr nonnull %2) #31
  resume { ptr, i32 } %11

.critedge:                                        ; preds = %1
  %12 = sub nuw i32 %7, %6
  store i32 %12, ptr %0, align 8, !tbaa !59
  %13 = getelementptr inbounds nuw i8, ptr %2, i64 48
  %14 = load i64, ptr %13, align 8, !tbaa !33
  %15 = and i64 %14, -2
  %16 = inttoptr i64 %15 to ptr
  %17 = icmp eq i64 %15, 0
  br i1 %17, label %_ZN9grpc_core19UniquePtrWithBitsetINS_16HpackParseResultELm1EED2Ev.exit.i, label %18

18:                                               ; preds = %.critedge
  %19 = load ptr, ptr %16, align 8, !tbaa !42
  %.not.i.i.i.i = icmp eq ptr %19, null
  br i1 %.not.i.i.i.i, label %_ZN9grpc_core16HpackParseResultD2Ev.exit.i.i, label %20

20:                                               ; preds = %18
  %21 = getelementptr inbounds nuw i8, ptr %19, i64 8
  %22 = atomicrmw sub ptr %21, i64 1 acq_rel, align 8
  %23 = icmp eq i64 %22, 1
  br i1 %23, label %24, label %_ZN9grpc_core16HpackParseResultD2Ev.exit.i.i, !prof !41

24:                                               ; preds = %20
  %25 = load ptr, ptr %19, align 8, !tbaa !39
  %26 = getelementptr inbounds nuw i8, ptr %25, i64 8
  %27 = load ptr, ptr %26, align 8
  tail call void %27(ptr noundef nonnull align 8 dereferenceable(88) %19) #31
  br label %_ZN9grpc_core16HpackParseResultD2Ev.exit.i.i

_ZN9grpc_core16HpackParseResultD2Ev.exit.i.i:     ; preds = %24, %20, %18
  tail call void @_ZdlPvm(ptr noundef nonnull %16, i64 noundef 8) #34
  br label %_ZN9grpc_core19UniquePtrWithBitsetINS_16HpackParseResultELm1EED2Ev.exit.i

_ZN9grpc_core19UniquePtrWithBitsetINS_16HpackParseResultELm1EED2Ev.exit.i: ; preds = %_ZN9grpc_core16HpackParseResultD2Ev.exit.i.i, %.critedge
  %28 = load ptr, ptr %2, align 8, !tbaa !26
  %29 = getelementptr inbounds nuw i8, ptr %28, i64 8
  %30 = load ptr, ptr %29, align 8, !tbaa !45
  %31 = getelementptr inbounds nuw i8, ptr %2, i64 8
  invoke void %30(ptr noundef nonnull align 8 dereferenceable(32) %31)
          to label %_ZN9grpc_core10HPackTable7MementoD2Ev.exit unwind label %32

32:                                               ; preds = %_ZN9grpc_core19UniquePtrWithBitsetINS_16HpackParseResultELm1EED2Ev.exit.i
  %33 = landingpad { ptr, i32 }
          catch ptr null
  %34 = extractvalue { ptr, i32 } %33, 0
  call void @__clang_call_terminate(ptr %34) #33
  unreachable

_ZN9grpc_core10HPackTable7MementoD2Ev.exit:       ; preds = %_ZN9grpc_core19UniquePtrWithBitsetINS_16HpackParseResultELm1EED2Ev.exit.i
  call void @llvm.lifetime.end.p0(i64 56, ptr nonnull %2) #31
  ret void
}